
; /// start

define void @_ZN7CabinetD1Ev() nounwind {
entry:
  ret void
}

define void @_ZN4ListIP9EquipmentEC1El() nounwind {
entry:
  ret void
}

define void @_Unwind_Resume() nounwind {
entry:
  ret void
}

define void @_ZN3BusD1Ev() nounwind {
entry:
  ret void
}

define void @_ZN4CardD1Ev() nounwind {
entry:
  ret void
}

define void @_ZN9EquipmentD2Ev() nounwind {
entry:
  ret void
}

define void @_ZN7CabinetC1EPKc() nounwind {
entry:
  ret void
}

define void @_ZN4CardC1EPKc() nounwind {
entry:
  ret void
}

define void @_ZSt9terminatev() nounwind {
entry:
  ret void
}

define void @_ZN10FloppyDiskD1Ev() nounwind {
entry:
  ret void
}

define void @__cxa_begin_catch() nounwind {
entry:
  ret void
}

define void @_ZTV7Chassis() nounwind {
entry:
  ret void
}

define void @_ZN10FloppyDiskC1EPKc() nounwind {
entry:
  ret void
}

define void @__gxx_personality_v0() nounwind {
entry:
  ret void
}

define void @_ZTV9Equipment() nounwind {
entry:
  ret void
}

define void @_ZTV18CompositeEquipment() nounwind {
entry:
  ret void
}

define void @_ZN7Chassis8NetPriceEv() nounwind {
entry:
  ret void
}

define void @_ZN3BusC1EPKc() nounwind {
entry:
  ret void
}

define void @_ZN4ListIP9EquipmentE3AddES1_() nounwind {
entry:
  ret void
}

define void @_ZN12ListIteratorIP9EquipmentEC1EPK4ListIS1_E() nounwind {
entry:
  ret void
}

define void @_ZN7ChassisD1Ev() nounwind {
entry:
  ret void
}

define void @_ZN18CompositeEquipmentD2Ev() nounwind {
entry:
  ret void
}




